target datalayout = "e-m:e-p270:32:32-p271:32:32-p272:64:64-i64:64-i128:128-f80:128-n8:16:32:64-S128"
target triple = "x86_64-pc-linux-gnu"

%struct.CrxWaveletTransform = type { ptr, ptr, ptr, ptr, [8 x ptr], i16, i16, i8, i16, i16 }
%struct.CrxPlaneComp = type { ptr, ptr, ptr, i8, i64, i32, i8, i32, i8 }

; Function Attrs: mustprogress nounwind uwtable
define noundef ptr @_Z22crxIdwt53FilterGetLineP12CrxPlaneCompi(ptr noundef %0, i32 noundef %1) #6 {
  %3 = alloca ptr, align 8
  %4 = alloca i32, align 4
  %5 = alloca ptr, align 8
  store ptr %0, ptr %3, align 8, !tbaa !105
  store i32 %1, ptr %4, align 4, !tbaa !20
  call void @llvm.lifetime.start.p0(i64 8, ptr %5) #19
  %6 = load ptr, ptr %3, align 8, !tbaa !105
  %7 = getelementptr inbounds nuw %struct.CrxPlaneComp, ptr %6, i32 0, i32 2
  %8 = load ptr, ptr %7, align 8, !tbaa !107
  %9 = load i32, ptr %4, align 4, !tbaa !20
  %10 = sext i32 %9 to i64
  %11 = getelementptr inbounds %struct.CrxWaveletTransform, ptr %8, i64 %10
  %12 = getelementptr inbounds nuw %struct.CrxWaveletTransform, ptr %11, i32 0, i32 4
  %13 = load ptr, ptr %3, align 8, !tbaa !105
  %14 = getelementptr inbounds nuw %struct.CrxPlaneComp, ptr %13, i32 0, i32 2
  %15 = load ptr, ptr %14, align 8, !tbaa !107
  %16 = load i32, ptr %4, align 4, !tbaa !20
  %17 = sext i32 %16 to i64
  %18 = getelementptr inbounds %struct.CrxWaveletTransform, ptr %15, i64 %17
  %19 = getelementptr inbounds nuw %struct.CrxWaveletTransform, ptr %18, i32 0, i32 7
  %20 = load i8, ptr %19, align 4, !tbaa !109
  %21 = sext i8 %20 to i32
  %22 = load ptr, ptr %3, align 8, !tbaa !105
  %23 = getelementptr inbounds nuw %struct.CrxPlaneComp, ptr %22, i32 0, i32 2
  %24 = load ptr, ptr %23, align 8, !tbaa !107
  %25 = load i32, ptr %4, align 4, !tbaa !20
  %26 = sext i32 %25 to i64
  %27 = getelementptr inbounds %struct.CrxWaveletTransform, ptr %24, i64 %26
  %28 = getelementptr inbounds nuw %struct.CrxWaveletTransform, ptr %27, i32 0, i32 6
  %29 = load i16, ptr %28, align 2, !tbaa !110
  %30 = sext i16 %29 to i32
  %31 = sub nsw i32 %21, %30
  %32 = add nsw i32 %31, 5
  %33 = srem i32 %32, 5
  %34 = add nsw i32 %33, 3
  %35 = sext i32 %34 to i64
  %36 = getelementptr inbounds [8 x ptr], ptr %12, i64 0, i64 %35
  %37 = load ptr, ptr %36, align 8, !tbaa !65
  store ptr %37, ptr %5, align 8, !tbaa !65
  %38 = load ptr, ptr %3, align 8, !tbaa !105
  %39 = getelementptr inbounds nuw %struct.CrxPlaneComp, ptr %38, i32 0, i32 2
  %40 = load ptr, ptr %39, align 8, !tbaa !107
  %41 = load i32, ptr %4, align 4, !tbaa !20
  %42 = sext i32 %41 to i64
  %43 = getelementptr inbounds %struct.CrxWaveletTransform, ptr %40, i64 %42
  %44 = getelementptr inbounds nuw %struct.CrxWaveletTransform, ptr %43, i32 0, i32 6
  %45 = load i16, ptr %44, align 2, !tbaa !110
  %46 = add i16 %45, -1
  store i16 %46, ptr %44, align 2, !tbaa !110
  %47 = load ptr, ptr %5, align 8, !tbaa !65
  call void @llvm.lifetime.end.p0(i64 8, ptr %5) #19
  ret ptr %47
}