; Function Attrs: mustprogress nofree norecurse nosync nounwind willreturn memory(readwrite, inaccessiblemem: none) uwtable
define noundef ptr @_Z22crxIdwt53FilterGetLineP12CrxPlaneCompi(ptr noundef readonly captures(none) %0, i32 noundef %1) local_unnamed_addr #5 {
  %3 = getelementptr inbounds nuw i8, ptr %0, i64 16
  %4 = load ptr, ptr %3, align 8, !tbaa !99
  %5 = sext i32 %1 to i64
  %6 = getelementptr inbounds %struct.CrxWaveletTransform, ptr %4, i64 %5
  %7 = getelementptr inbounds nuw i8, ptr %6, i64 32
  %8 = getelementptr inbounds nuw i8, ptr %6, i64 100
  %9 = load i8, ptr %8, align 4, !tbaa !103
  %10 = sext i8 %9 to i32
  %11 = getelementptr inbounds nuw i8, ptr %6, i64 98
  %12 = load i16, ptr %11, align 2, !tbaa !104
  %13 = sext i16 %12 to i32
  %14 = add nsw i32 %10, 5
  %15 = sub nsw i32 %14, %13
  %16 = srem i32 %15, 5
  %17 = add nsw i32 %16, 3
  %18 = sext i32 %17 to i64
  %19 = getelementptr inbounds [8 x ptr], ptr %7, i64 0, i64 %18
  %20 = load ptr, ptr %19, align 8, !tbaa !105
  %21 = add i16 %12, -1
  store i16 %21, ptr %11, align 2, !tbaa !104
  ret ptr %20
}